target datalayout = "e-m:e-p270:32:32-p271:32:32-p272:64:64-i64:64-i128:128-f80:128-n8:16:32:64-S128"
target triple = "x86_64-pc-linux-gnu"

; Function Attrs: nounwind uwtable
define internal ptr @gather_boolean_expression(ptr noundef %0) #0 {
  %2 = alloca ptr, align 8
  %3 = alloca ptr, align 8
  %4 = alloca i32, align 4
  %5 = alloca ptr, align 8
  store ptr %0, ptr %2, align 8
  call void @llvm.lifetime.start.p0(i64 8, ptr %3) #10
  %6 = call ptr @createPQExpBuffer()
  store ptr %6, ptr %3, align 8
  call void @llvm.lifetime.start.p0(i64 4, ptr %4) #10
  store i32 0, ptr %4, align 4
  call void @llvm.lifetime.start.p0(i64 8, ptr %5) #10
  br label %7

7:                                                ; preds = %16, %1
  %8 = load ptr, ptr %2, align 8
  %9 = call ptr @psql_scan_slash_option(ptr noundef %8, i32 noundef 0, ptr noundef null, i1 noundef zeroext false)
  store ptr %9, ptr %5, align 8
  %10 = icmp ne ptr %9, null
  br i1 %10, label %11, label %22

11:                                               ; preds = %7
  %12 = load i32, ptr %4, align 4
  %13 = icmp sgt i32 %12, 0
  br i1 %13, label %14, label %16

14:                                               ; preds = %11
  %15 = load ptr, ptr %3, align 8
  call void @appendPQExpBufferChar(ptr noundef %15, i8 noundef signext 32)
  br label %16

16:                                               ; preds = %14, %11
  %17 = load ptr, ptr %3, align 8
  %18 = load ptr, ptr %5, align 8
  call void @appendPQExpBufferStr(ptr noundef %17, ptr noundef %18)
  %19 = load i32, ptr %4, align 4
  %20 = add i32 %19, 1
  store i32 %20, ptr %4, align 4
  %21 = load ptr, ptr %5, align 8
  call void @free(ptr noundef %21) #10
  br label %7, !llvm.loop !28

22:                                               ; preds = %7
  %23 = load ptr, ptr %3, align 8
  call void @llvm.lifetime.end.p0(i64 8, ptr %5) #10
  call void @llvm.lifetime.end.p0(i64 4, ptr %4) #10
  call void @llvm.lifetime.end.p0(i64 8, ptr %3) #10
  ret ptr %23
}

; Function Attrs: nounwind uwtable
define internal void @ignore_boolean_expression(ptr noundef %0) #0 {
  %2 = alloca ptr, align 8
  %3 = alloca ptr, align 8
  store ptr %0, ptr %2, align 8
  call void @llvm.lifetime.start.p0(i64 8, ptr %3) #10
  %4 = load ptr, ptr %2, align 8
  %5 = call ptr @gather_boolean_expression(ptr noundef %4)
  store ptr %5, ptr %3, align 8
  %6 = load ptr, ptr %3, align 8
  call void @destroyPQExpBuffer(ptr noundef %6)
  call void @llvm.lifetime.end.p0(i64 8, ptr %3) #10
  ret void
}