; Function Attrs: nounwind uwtable
define internal fastcc void @ignore_boolean_expression(ptr noundef %0) unnamed_addr #0 {
  %2 = tail call ptr @createPQExpBuffer() #16
  %3 = tail call ptr @psql_scan_slash_option(ptr noundef %0, i32 noundef 0, ptr noundef null, i1 noundef zeroext false) #16
  %.not8.i = icmp eq ptr %3, null
  br i1 %.not8.i, label %gather_boolean_expression.exit, label %.lr.ph.i

.lr.ph.i:                                         ; preds = %1, %7
  %4 = phi ptr [ %9, %7 ], [ %3, %1 ]
  %.09.i = phi i32 [ %8, %7 ], [ 0, %1 ]
  %5 = icmp sgt i32 %.09.i, 0
  br i1 %5, label %6, label %7

6:                                                ; preds = %.lr.ph.i
  tail call void @appendPQExpBufferChar(ptr noundef %2, i8 noundef signext 32) #16
  br label %7

7:                                                ; preds = %6, %.lr.ph.i
  tail call void @appendPQExpBufferStr(ptr noundef %2, ptr noundef nonnull %4) #16
  %8 = add i32 %.09.i, 1
  tail call void @free(ptr noundef nonnull %4) #16
  %9 = tail call ptr @psql_scan_slash_option(ptr noundef %0, i32 noundef 0, ptr noundef null, i1 noundef zeroext false) #16
  %.not.i = icmp eq ptr %9, null
  br i1 %.not.i, label %gather_boolean_expression.exit, label %.lr.ph.i, !llvm.loop !31

gather_boolean_expression.exit:                   ; preds = %7, %1
  tail call void @destroyPQExpBuffer(ptr noundef %2) #16
  ret void
}